; Function Attrs: mustprogress nofree norecurse nosync nounwind willreturn memory(read, inaccessiblemem: none) uwtable
define internal double @a1(ptr noundef readonly captures(none) %0, double noundef %1, double noundef %2) #7 {
  %4 = getelementptr inbounds nuw i8, ptr %0, i64 104
  %5 = load ptr, ptr %4, align 8, !tbaa !32
  %6 = getelementptr inbounds nuw i8, ptr %0, i64 40
  %7 = load i32, ptr %6, align 8, !tbaa !77
  %8 = tail call i32 @llvm.smin.i32(i32 %7, i32 2)
  %9 = add i32 %8, -1
  %10 = sext i32 %9 to i64
  %11 = getelementptr inbounds [8 x ptr], ptr %5, i64 0, i64 %10
  %12 = load ptr, ptr %11, align 8, !tbaa !89
  %13 = getelementptr inbounds nuw i8, ptr %5, i64 64
  %14 = getelementptr inbounds [8 x i32], ptr %13, i64 0, i64 %10
  %15 = load i32, ptr %14, align 4, !tbaa !31
  %16 = getelementptr inbounds nuw i8, ptr %5, i64 104
  %17 = load i32, ptr %16, align 8, !tbaa !85
  %18 = getelementptr inbounds nuw i8, ptr %5, i64 108
  %19 = load i32, ptr %18, align 4, !tbaa !88
  %20 = add nsw i32 %17, -1
  %21 = sitofp i32 %20 to double
  %22 = fcmp nsz ogt double %1, 0.000000e+00
  %23 = select nsz i1 %22, double %1, double 0.000000e+00
  %24 = fcmp nsz ogt double %23, %21
  %..i.i = select nsz i1 %24, double %21, double %23
  %25 = fptosi double %..i.i to i32
  %26 = add nsw i32 %19, -1
  %27 = sitofp i32 %26 to double
  %28 = fcmp nsz ogt double %2, 0.000000e+00
  %29 = select nsz i1 %28, double %2, double 0.000000e+00
  %30 = fcmp nsz ogt double %29, %27
  %..i34.i = select nsz i1 %30, double %27, double %29
  %31 = fptosi double %..i34.i to i32
  %32 = getelementptr inbounds nuw i8, ptr %0, i64 44
  %33 = load i32, ptr %32, align 4, !tbaa !73
  %34 = icmp sgt i32 %33, 8
  br i1 %34, label %35, label %43

35:                                               ; preds = %3
  %36 = sdiv i32 %15, 2
  %37 = mul nsw i32 %36, %31
  %38 = add nsw i32 %37, %25
  %39 = sext i32 %38 to i64
  %40 = getelementptr inbounds i16, ptr %12, i64 %39
  %41 = load i16, ptr %40, align 2, !tbaa !79
  %42 = uitofp i16 %41 to double
  br label %getpix.exit

43:                                               ; preds = %3
  %44 = mul nsw i32 %15, %31
  %45 = add nsw i32 %44, %25
  %46 = sext i32 %45 to i64
  %47 = getelementptr inbounds i8, ptr %12, i64 %46
  %48 = load i8, ptr %47, align 1, !tbaa !90
  %49 = uitofp i8 %48 to double
  br label %getpix.exit

getpix.exit:                                      ; preds = %35, %43
  %.0.i = phi nsz double [ %42, %35 ], [ %49, %43 ]
  ret double %.0.i
}